; ModuleID = 'source-C-CXX/52/289.c'
source_filename = "source-C-CXX/52/289.c"
target datalayout = "e-m:e-p270:32:32-p271:32:32-p272:64:64-i64:64-f80:128-n8:16:32:64-S128"
target triple = "x86_64-pc-linux-gnu"

@.str = private unnamed_addr constant [3 x i8] c"%d\00", align 1
@.str.1 = private unnamed_addr constant [4 x i8] c"%d,\00", align 1

; Function Attrs: nofree nounwind sspstrong uwtable
define dso_local i32 @main() local_unnamed_addr #0 {
  %1 = alloca i32, align 4
  %2 = alloca i32, align 4
  %3 = alloca [300 x i32], align 16
  %4 = bitcast i32* %1 to i8*
  call void @llvm.lifetime.start.p0i8(i64 4, i8* nonnull %4) #3
  %5 = bitcast i32* %2 to i8*
  call void @llvm.lifetime.start.p0i8(i64 4, i8* nonnull %5) #3
  %6 = bitcast [300 x i32]* %3 to i8*
  call void @llvm.lifetime.start.p0i8(i64 1200, i8* nonnull %6) #3
  %7 = call i32 (i8*, ...) @__isoc99_scanf(i8* getelementptr inbounds ([3 x i8], [3 x i8]* @.str, i64 0, i64 0), i32* nonnull %2)
  %8 = getelementptr inbounds [300 x i32], [300 x i32]* %3, i64 0, i64 0
  %9 = call i32 (i8*, ...) @__isoc99_scanf(i8* getelementptr inbounds ([3 x i8], [3 x i8]* @.str, i64 0, i64 0), i32* nonnull %8)
  %10 = load i32, i32* %2, align 4, !tbaa !5
  %11 = icmp sgt i32 %10, 1
  br i1 %11, label %18, label %14

12:                                               ; preds = %44
  %13 = icmp sgt i32 %46, 1
  br i1 %13, label %48, label %14

14:                                               ; preds = %0, %12
  %15 = phi i32 [ %46, %12 ], [ %10, %0 ]
  %16 = add nsw i32 %15, -1
  %17 = sext i32 %16 to i64
  br label %58

18:                                               ; preds = %0, %44
  %19 = phi i32 [ %45, %44 ], [ 1, %0 ]
  %20 = call i32 (i8*, ...) @__isoc99_scanf(i8* getelementptr inbounds ([3 x i8], [3 x i8]* @.str, i64 0, i64 0), i32* nonnull %1)
  %21 = load i32, i32* %1, align 4
  %22 = icmp sgt i32 %19, 0
  br i1 %22, label %23, label %37

23:                                               ; preds = %18
  %24 = zext i32 %19 to i64
  br label %25

25:                                               ; preds = %23, %34
  %26 = phi i64 [ 0, %23 ], [ %35, %34 ]
  %27 = getelementptr inbounds [300 x i32], [300 x i32]* %3, i64 0, i64 %26
  %28 = load i32, i32* %27, align 4, !tbaa !5
  %29 = icmp eq i32 %21, %28
  br i1 %29, label %30, label %34

30:                                               ; preds = %25
  %31 = trunc i64 %26 to i32
  %32 = load i32, i32* %2, align 4, !tbaa !5
  %33 = add nsw i32 %32, -1
  store i32 %33, i32* %2, align 4, !tbaa !5
  br label %37

34:                                               ; preds = %25
  %35 = add nuw nsw i64 %26, 1
  %36 = icmp eq i64 %35, %24
  br i1 %36, label %37, label %25, !llvm.loop !9

37:                                               ; preds = %34, %18, %30
  %38 = phi i32 [ %31, %30 ], [ 0, %18 ], [ %19, %34 ]
  %39 = icmp eq i32 %19, %38
  br i1 %39, label %40, label %44

40:                                               ; preds = %37
  %41 = sext i32 %19 to i64
  %42 = getelementptr inbounds [300 x i32], [300 x i32]* %3, i64 0, i64 %41
  store i32 %21, i32* %42, align 4, !tbaa !5
  %43 = add nsw i32 %19, 1
  br label %44

44:                                               ; preds = %40, %37
  %45 = phi i32 [ %43, %40 ], [ %19, %37 ]
  %46 = load i32, i32* %2, align 4, !tbaa !5
  %47 = icmp slt i32 %45, %46
  br i1 %47, label %18, label %12, !llvm.loop !11

48:                                               ; preds = %12, %48
  %49 = phi i64 [ %53, %48 ], [ 0, %12 ]
  %50 = getelementptr inbounds [300 x i32], [300 x i32]* %3, i64 0, i64 %49
  %51 = load i32, i32* %50, align 4, !tbaa !5
  %52 = call i32 (i8*, ...) @printf(i8* nonnull dereferenceable(1) getelementptr inbounds ([4 x i8], [4 x i8]* @.str.1, i64 0, i64 0), i32 %51)
  %53 = add nuw nsw i64 %49, 1
  %54 = load i32, i32* %2, align 4, !tbaa !5
  %55 = add nsw i32 %54, -1
  %56 = sext i32 %55 to i64
  %57 = icmp slt i64 %53, %56
  br i1 %57, label %48, label %58, !llvm.loop !12

58:                                               ; preds = %48, %14
  %59 = phi i64 [ %17, %14 ], [ %56, %48 ]
  %60 = getelementptr inbounds [300 x i32], [300 x i32]* %3, i64 0, i64 %59
  %61 = load i32, i32* %60, align 4, !tbaa !5
  %62 = call i32 (i8*, ...) @printf(i8* nonnull dereferenceable(1) getelementptr inbounds ([3 x i8], [3 x i8]* @.str, i64 0, i64 0), i32 %61)
  call void @llvm.lifetime.end.p0i8(i64 1200, i8* nonnull %6) #3
  call void @llvm.lifetime.end.p0i8(i64 4, i8* nonnull %5) #3
  call void @llvm.lifetime.end.p0i8(i64 4, i8* nonnull %4) #3
  ret i32 0
}

; Function Attrs: argmemonly mustprogress nofree nosync nounwind willreturn
declare void @llvm.lifetime.start.p0i8(i64 immarg, i8* nocapture) #1

; Function Attrs: nofree nounwind
declare noundef i32 @__isoc99_scanf(i8* nocapture noundef readonly, ...) local_unnamed_addr #2

; Function Attrs: nofree nounwind
declare noundef i32 @printf(i8* nocapture noundef readonly, ...) local_unnamed_addr #2

; Function Attrs: argmemonly mustprogress nofree nosync nounwind willreturn
declare void @llvm.lifetime.end.p0i8(i64 immarg, i8* nocapture) #1


!llvm.module.flags = !{!0, !1, !2, !3}
!llvm.ident = !{!4}

!0 = !{i32 1, !"wchar_size", i32 4}
!1 = !{i32 7, !"PIC Level", i32 2}
!2 = !{i32 7, !"PIE Level", i32 2}
!3 = !{i32 7, !"uwtable", i32 1}
!4 = !{!"clang version 13.0.0"}
!5 = !{!6, !6, i64 0}
!6 = !{!"int", !7, i64 0}
!7 = !{!"omnipotent char", !8, i64 0}
!8 = !{!"Simple C/C++ TBAA"}
!9 = distinct !{!9, !10}
!10 = !{!"llvm.loop.mustprogress"}
!11 = distinct !{!11, !10}
!12 = distinct !{!12, !10}
